target datalayout = "e-m:e-p270:32:32-p271:32:32-p272:64:64-i64:64-i128:128-f80:128-n8:16:32:64-S128"
target triple = "x86_64-unknown-linux-gnu"

%"class.icu_75::UnicodeSet" = type <{ %"class.icu_75::UnicodeFilter", ptr, i32, i32, i8, [7 x i8], ptr, ptr, i32, [4 x i8], ptr, i32, [4 x i8], ptr, ptr, [25 x i32], [4 x i8] }>
%"class.icu_75::UnicodeFilter" = type { %"class.icu_75::UnicodeFunctor", %"class.icu_75::UnicodeMatcher" }
%"class.icu_75::UnicodeFunctor" = type { %"class.icu_75::UObject" }
%"class.icu_75::UObject" = type { ptr }
%"class.icu_75::UnicodeMatcher" = type { ptr }

; Function Attrs: mustprogress uwtable
define void @_ZN6icu_7510UnicodeSet14releasePatternEv(ptr noundef nonnull align 8 dereferenceable(200) %this) #1 align 2 {
entry:
  %this.addr = alloca ptr, align 8
  store ptr %this, ptr %this.addr, align 8
  %this1 = load ptr, ptr %this.addr, align 8
  %pat = getelementptr inbounds %"class.icu_75::UnicodeSet", ptr %this1, i32 0, i32 10
  %0 = load ptr, ptr %pat, align 8
  %tobool = icmp ne ptr %0, null
  br i1 %tobool, label %if.then, label %if.end

if.then:                                          ; preds = %entry
  %pat2 = getelementptr inbounds %"class.icu_75::UnicodeSet", ptr %this1, i32 0, i32 10
  %1 = load ptr, ptr %pat2, align 8
  call void @uprv_free_75(ptr noundef %1)
  %pat3 = getelementptr inbounds %"class.icu_75::UnicodeSet", ptr %this1, i32 0, i32 10
  store ptr null, ptr %pat3, align 8
  %patLen = getelementptr inbounds %"class.icu_75::UnicodeSet", ptr %this1, i32 0, i32 11
  store i32 0, ptr %patLen, align 8
  br label %if.end

if.end:                                           ; preds = %if.then, %entry
  ret void
}

; Function Attrs: mustprogress uwtable
define void @_ZN6icu_7510UnicodeSet10setPatternEPKDsi(ptr noundef nonnull align 8 dereferenceable(200) %this, ptr noundef %newPat, i32 noundef %newPatLen) #1 align 2 {
entry:
  %this.addr = alloca ptr, align 8
  %newPat.addr = alloca ptr, align 8
  %newPatLen.addr = alloca i32, align 4
  store ptr %this, ptr %this.addr, align 8
  store ptr %newPat, ptr %newPat.addr, align 8
  store i32 %newPatLen, ptr %newPatLen.addr, align 4
  %this1 = load ptr, ptr %this.addr, align 8
  call void @_ZN6icu_7510UnicodeSet14releasePatternEv(ptr noundef nonnull align 8 dereferenceable(200) %this1)
  %0 = load i32, ptr %newPatLen.addr, align 4
  %add = add nsw i32 %0, 1
  %conv = sext i32 %add to i64
  %mul = mul i64 %conv, 2
  %call = call noalias ptr @uprv_malloc_75(i64 noundef %mul) #13
  %pat = getelementptr inbounds %"class.icu_75::UnicodeSet", ptr %this1, i32 0, i32 10
  store ptr %call, ptr %pat, align 8
  %pat2 = getelementptr inbounds %"class.icu_75::UnicodeSet", ptr %this1, i32 0, i32 10
  %1 = load ptr, ptr %pat2, align 8
  %tobool = icmp ne ptr %1, null
  br i1 %tobool, label %if.then, label %if.end

if.then:                                          ; preds = %entry
  %2 = load i32, ptr %newPatLen.addr, align 4
  %patLen = getelementptr inbounds %"class.icu_75::UnicodeSet", ptr %this1, i32 0, i32 11
  store i32 %2, ptr %patLen, align 8
  %pat3 = getelementptr inbounds %"class.icu_75::UnicodeSet", ptr %this1, i32 0, i32 10
  %3 = load ptr, ptr %pat3, align 8
  %4 = load ptr, ptr %newPat.addr, align 8
  %patLen4 = getelementptr inbounds %"class.icu_75::UnicodeSet", ptr %this1, i32 0, i32 11
  %5 = load i32, ptr %patLen4, align 8
  %call5 = call ptr @u_memcpy_75(ptr noundef %3, ptr noundef %4, i32 noundef %5)
  %pat6 = getelementptr inbounds %"class.icu_75::UnicodeSet", ptr %this1, i32 0, i32 10
  %6 = load ptr, ptr %pat6, align 8
  %patLen7 = getelementptr inbounds %"class.icu_75::UnicodeSet", ptr %this1, i32 0, i32 11
  %7 = load i32, ptr %patLen7, align 8
  %idxprom = sext i32 %7 to i64
  %arrayidx = getelementptr inbounds i16, ptr %6, i64 %idxprom
  store i16 0, ptr %arrayidx, align 2
  br label %if.end

if.end:                                           ; preds = %if.then, %entry
  ret void
}