; Function Attrs: mustprogress uwtable
define void @_ZN6icu_7510UnicodeSet10setPatternEPKDsi(ptr nocapture noundef nonnull align 8 dereferenceable(200) %this, ptr noundef %newPat, i32 noundef %newPatLen) local_unnamed_addr #1 align 2 {
entry:
  %pat.i = getelementptr inbounds i8, ptr %this, i64 64
  %0 = load ptr, ptr %pat.i, align 8
  %tobool.not.i = icmp eq ptr %0, null
  br i1 %tobool.not.i, label %_ZN6icu_7510UnicodeSet14releasePatternEv.exit, label %if.then.i

if.then.i:                                        ; preds = %entry
  tail call void @uprv_free_75(ptr noundef nonnull %0)
  store ptr null, ptr %pat.i, align 8
  %patLen.i = getelementptr inbounds i8, ptr %this, i64 72
  store i32 0, ptr %patLen.i, align 8
  br label %_ZN6icu_7510UnicodeSet14releasePatternEv.exit

_ZN6icu_7510UnicodeSet14releasePatternEv.exit:    ; preds = %entry, %if.then.i
  %add = add nsw i32 %newPatLen, 1
  %conv = sext i32 %add to i64
  %mul = shl nsw i64 %conv, 1
  %call = tail call noalias ptr @uprv_malloc_75(i64 noundef %mul) #23
  store ptr %call, ptr %pat.i, align 8
  %tobool.not = icmp eq ptr %call, null
  br i1 %tobool.not, label %if.end, label %if.then

if.then:                                          ; preds = %_ZN6icu_7510UnicodeSet14releasePatternEv.exit
  %patLen = getelementptr inbounds i8, ptr %this, i64 72
  store i32 %newPatLen, ptr %patLen, align 8
  %call5 = tail call ptr @u_memcpy_75(ptr noundef nonnull %call, ptr noundef %newPat, i32 noundef %newPatLen)
  %1 = load ptr, ptr %pat.i, align 8
  %2 = load i32, ptr %patLen, align 8
  %idxprom = sext i32 %2 to i64
  %arrayidx = getelementptr inbounds i16, ptr %1, i64 %idxprom
  store i16 0, ptr %arrayidx, align 2
  br label %if.end

if.end:                                           ; preds = %if.then, %_ZN6icu_7510UnicodeSet14releasePatternEv.exit
  ret void
}